target datalayout = "e-m:e-p270:32:32-p271:32:32-p272:64:64-i64:64-i128:128-f80:128-n8:16:32:64-S128"
target triple = "x86_64-pc-linux-gnu"

%struct.png_color_8_struct = type { i8, i8, i8, i8, i8 }
%struct.png_color_16_struct = type { i8, i16, i16, i16, i16 }
%struct.png_colorspace = type { i32, %struct.png_xy, %struct.png_XYZ, i16, i16 }
%struct.png_xy = type { i32, i32, i32, i32, i32, i32, i32, i32 }
%struct.png_XYZ = type { i32, i32, i32, i32, i32, i32, i32, i32, i32 }
%struct.png_info_def = type { i32, i32, i32, i64, ptr, i16, i16, i8, i8, i8, i8, i8, i8, i8, i8, [8 x i8], %struct.png_colorspace, ptr, ptr, i32, i32, i32, ptr, %struct.png_time_struct, %struct.png_color_8_struct, ptr, %struct.png_color_16_struct, %struct.png_color_16_struct, i32, i32, i8, i32, i32, i8, i32, ptr, ptr, ptr, ptr, i32, i32, ptr, ptr, i8, i8, i32, ptr, i32, ptr, i32, i8, ptr, ptr, ptr }
%struct.png_time_struct = type { i16, i8, i8, i8, i8, i8 }

; Function Attrs: nounwind uwtable
define i32 @png_get_cHRM_fixed(ptr noalias noundef %0, ptr noalias noundef %1, ptr noundef %2, ptr noundef %3, ptr noundef %4, ptr noundef %5, ptr noundef %6, ptr noundef %7, ptr noundef %8, ptr noundef %9) #0 {
  %11 = alloca i32, align 4
  %12 = alloca ptr, align 8
  %13 = alloca ptr, align 8
  %14 = alloca ptr, align 8
  %15 = alloca ptr, align 8
  %16 = alloca ptr, align 8
  %17 = alloca ptr, align 8
  %18 = alloca ptr, align 8
  %19 = alloca ptr, align 8
  %20 = alloca ptr, align 8
  %21 = alloca ptr, align 8
  store ptr %0, ptr %12, align 8
  store ptr %1, ptr %13, align 8
  store ptr %2, ptr %14, align 8
  store ptr %3, ptr %15, align 8
  store ptr %4, ptr %16, align 8
  store ptr %5, ptr %17, align 8
  store ptr %6, ptr %18, align 8
  store ptr %7, ptr %19, align 8
  store ptr %8, ptr %20, align 8
  store ptr %9, ptr %21, align 8
  %22 = load ptr, ptr %12, align 8
  %23 = icmp ne ptr %22, null
  br i1 %23, label %24, label %116

24:                                               ; preds = %10
  %25 = load ptr, ptr %13, align 8
  %26 = icmp ne ptr %25, null
  br i1 %26, label %27, label %116

27:                                               ; preds = %24
  %28 = load ptr, ptr %13, align 8
  %29 = getelementptr inbounds %struct.png_info_def, ptr %28, i32 0, i32 16
  %30 = getelementptr inbounds %struct.png_colorspace, ptr %29, i32 0, i32 4
  %31 = load i16, ptr %30, align 2
  %32 = zext i16 %31 to i32
  %33 = and i32 %32, 2
  %34 = icmp ne i32 %33, 0
  br i1 %34, label %35, label %116

35:                                               ; preds = %27
  %36 = load ptr, ptr %14, align 8
  %37 = icmp ne ptr %36, null
  br i1 %37, label %38, label %45

38:                                               ; preds = %35
  %39 = load ptr, ptr %13, align 8
  %40 = getelementptr inbounds %struct.png_info_def, ptr %39, i32 0, i32 16
  %41 = getelementptr inbounds %struct.png_colorspace, ptr %40, i32 0, i32 1
  %42 = getelementptr inbounds %struct.png_xy, ptr %41, i32 0, i32 6
  %43 = load i32, ptr %42, align 4
  %44 = load ptr, ptr %14, align 8
  store i32 %43, ptr %44, align 4
  br label %45

45:                                               ; preds = %38, %35
  %46 = load ptr, ptr %15, align 8
  %47 = icmp ne ptr %46, null
  br i1 %47, label %48, label %55

48:                                               ; preds = %45
  %49 = load ptr, ptr %13, align 8
  %50 = getelementptr inbounds %struct.png_info_def, ptr %49, i32 0, i32 16
  %51 = getelementptr inbounds %struct.png_colorspace, ptr %50, i32 0, i32 1
  %52 = getelementptr inbounds %struct.png_xy, ptr %51, i32 0, i32 7
  %53 = load i32, ptr %52, align 4
  %54 = load ptr, ptr %15, align 8
  store i32 %53, ptr %54, align 4
  br label %55

55:                                               ; preds = %48, %45
  %56 = load ptr, ptr %16, align 8
  %57 = icmp ne ptr %56, null
  br i1 %57, label %58, label %65

58:                                               ; preds = %55
  %59 = load ptr, ptr %13, align 8
  %60 = getelementptr inbounds %struct.png_info_def, ptr %59, i32 0, i32 16
  %61 = getelementptr inbounds %struct.png_colorspace, ptr %60, i32 0, i32 1
  %62 = getelementptr inbounds %struct.png_xy, ptr %61, i32 0, i32 0
  %63 = load i32, ptr %62, align 4
  %64 = load ptr, ptr %16, align 8
  store i32 %63, ptr %64, align 4
  br label %65

65:                                               ; preds = %58, %55
  %66 = load ptr, ptr %17, align 8
  %67 = icmp ne ptr %66, null
  br i1 %67, label %68, label %75

68:                                               ; preds = %65
  %69 = load ptr, ptr %13, align 8
  %70 = getelementptr inbounds %struct.png_info_def, ptr %69, i32 0, i32 16
  %71 = getelementptr inbounds %struct.png_colorspace, ptr %70, i32 0, i32 1
  %72 = getelementptr inbounds %struct.png_xy, ptr %71, i32 0, i32 1
  %73 = load i32, ptr %72, align 4
  %74 = load ptr, ptr %17, align 8
  store i32 %73, ptr %74, align 4
  br label %75

75:                                               ; preds = %68, %65
  %76 = load ptr, ptr %18, align 8
  %77 = icmp ne ptr %76, null
  br i1 %77, label %78, label %85

78:                                               ; preds = %75
  %79 = load ptr, ptr %13, align 8
  %80 = getelementptr inbounds %struct.png_info_def, ptr %79, i32 0, i32 16
  %81 = getelementptr inbounds %struct.png_colorspace, ptr %80, i32 0, i32 1
  %82 = getelementptr inbounds %struct.png_xy, ptr %81, i32 0, i32 2
  %83 = load i32, ptr %82, align 4
  %84 = load ptr, ptr %18, align 8
  store i32 %83, ptr %84, align 4
  br label %85

85:                                               ; preds = %78, %75
  %86 = load ptr, ptr %19, align 8
  %87 = icmp ne ptr %86, null
  br i1 %87, label %88, label %95

88:                                               ; preds = %85
  %89 = load ptr, ptr %13, align 8
  %90 = getelementptr inbounds %struct.png_info_def, ptr %89, i32 0, i32 16
  %91 = getelementptr inbounds %struct.png_colorspace, ptr %90, i32 0, i32 1
  %92 = getelementptr inbounds %struct.png_xy, ptr %91, i32 0, i32 3
  %93 = load i32, ptr %92, align 4
  %94 = load ptr, ptr %19, align 8
  store i32 %93, ptr %94, align 4
  br label %95

95:                                               ; preds = %88, %85
  %96 = load ptr, ptr %20, align 8
  %97 = icmp ne ptr %96, null
  br i1 %97, label %98, label %105

98:                                               ; preds = %95
  %99 = load ptr, ptr %13, align 8
  %100 = getelementptr inbounds %struct.png_info_def, ptr %99, i32 0, i32 16
  %101 = getelementptr inbounds %struct.png_colorspace, ptr %100, i32 0, i32 1
  %102 = getelementptr inbounds %struct.png_xy, ptr %101, i32 0, i32 4
  %103 = load i32, ptr %102, align 4
  %104 = load ptr, ptr %20, align 8
  store i32 %103, ptr %104, align 4
  br label %105

105:                                              ; preds = %98, %95
  %106 = load ptr, ptr %21, align 8
  %107 = icmp ne ptr %106, null
  br i1 %107, label %108, label %115

108:                                              ; preds = %105
  %109 = load ptr, ptr %13, align 8
  %110 = getelementptr inbounds %struct.png_info_def, ptr %109, i32 0, i32 16
  %111 = getelementptr inbounds %struct.png_colorspace, ptr %110, i32 0, i32 1
  %112 = getelementptr inbounds %struct.png_xy, ptr %111, i32 0, i32 5
  %113 = load i32, ptr %112, align 4
  %114 = load ptr, ptr %21, align 8
  store i32 %113, ptr %114, align 4
  br label %115

115:                                              ; preds = %108, %105
  store i32 4, ptr %11, align 4
  br label %117

116:                                              ; preds = %27, %24, %10
  store i32 0, ptr %11, align 4
  br label %117

117:                                              ; preds = %116, %115
  %118 = load i32, ptr %11, align 4
  ret i32 %118
}