; Function Attrs: mustprogress nofree norecurse nosync nounwind willreturn memory(argmem: readwrite) uwtable
define range(i32 0, 5) i32 @png_get_cHRM_fixed(ptr noalias noundef readnone %0, ptr noalias noundef readonly %1, ptr noundef writeonly %2, ptr noundef writeonly %3, ptr noundef writeonly %4, ptr noundef writeonly %5, ptr noundef writeonly %6, ptr noundef writeonly %7, ptr noundef writeonly %8, ptr noundef writeonly %9) local_unnamed_addr #3 {
  %11 = icmp ne ptr %0, null
  %12 = icmp ne ptr %1, null
  %or.cond = and i1 %11, %12
  br i1 %or.cond, label %13, label %49

13:                                               ; preds = %10
  %14 = getelementptr inbounds i8, ptr %1, i64 126
  %15 = load i16, ptr %14, align 2
  %16 = and i16 %15, 2
  %.not = icmp eq i16 %16, 0
  br i1 %.not, label %49, label %17

17:                                               ; preds = %13
  %.not37 = icmp eq ptr %2, null
  br i1 %.not37, label %21, label %18

18:                                               ; preds = %17
  %19 = getelementptr inbounds i8, ptr %1, i64 80
  %20 = load i32, ptr %19, align 4
  store i32 %20, ptr %2, align 4
  br label %21

21:                                               ; preds = %18, %17
  %.not38 = icmp eq ptr %3, null
  br i1 %.not38, label %25, label %22

22:                                               ; preds = %21
  %23 = getelementptr inbounds i8, ptr %1, i64 84
  %24 = load i32, ptr %23, align 4
  store i32 %24, ptr %3, align 4
  br label %25

25:                                               ; preds = %22, %21
  %.not39 = icmp eq ptr %4, null
  br i1 %.not39, label %29, label %26

26:                                               ; preds = %25
  %27 = getelementptr inbounds i8, ptr %1, i64 56
  %28 = load i32, ptr %27, align 4
  store i32 %28, ptr %4, align 4
  br label %29

29:                                               ; preds = %26, %25
  %.not40 = icmp eq ptr %5, null
  br i1 %.not40, label %33, label %30

30:                                               ; preds = %29
  %31 = getelementptr inbounds i8, ptr %1, i64 60
  %32 = load i32, ptr %31, align 4
  store i32 %32, ptr %5, align 4
  br label %33

33:                                               ; preds = %30, %29
  %.not41 = icmp eq ptr %6, null
  br i1 %.not41, label %37, label %34

34:                                               ; preds = %33
  %35 = getelementptr inbounds i8, ptr %1, i64 64
  %36 = load i32, ptr %35, align 4
  store i32 %36, ptr %6, align 4
  br label %37

37:                                               ; preds = %34, %33
  %.not42 = icmp eq ptr %7, null
  br i1 %.not42, label %41, label %38

38:                                               ; preds = %37
  %39 = getelementptr inbounds i8, ptr %1, i64 68
  %40 = load i32, ptr %39, align 4
  store i32 %40, ptr %7, align 4
  br label %41

41:                                               ; preds = %38, %37
  %.not43 = icmp eq ptr %8, null
  br i1 %.not43, label %45, label %42

42:                                               ; preds = %41
  %43 = getelementptr inbounds i8, ptr %1, i64 72
  %44 = load i32, ptr %43, align 4
  store i32 %44, ptr %8, align 4
  br label %45

45:                                               ; preds = %42, %41
  %.not44 = icmp eq ptr %9, null
  br i1 %.not44, label %49, label %46

46:                                               ; preds = %45
  %47 = getelementptr inbounds i8, ptr %1, i64 76
  %48 = load i32, ptr %47, align 4
  store i32 %48, ptr %9, align 4
  br label %49

49:                                               ; preds = %10, %13, %45, %46
  %.0 = phi i32 [ 4, %46 ], [ 4, %45 ], [ 0, %13 ], [ 0, %10 ]
  ret i32 %.0
}